; Function Attrs: mustprogress nofree norecurse nosync nounwind willreturn memory(read, inaccessiblemem: none) uwtable
define dso_local float @stbtt_ScaleForPixelHeight(ptr noundef readonly captures(none) %0, float noundef %1) local_unnamed_addr #2 {
  %3 = getelementptr inbounds nuw i8, ptr %0, i64 8
  %4 = load ptr, ptr %3, align 8
  %5 = getelementptr inbounds nuw i8, ptr %0, i64 36
  %6 = load i32, ptr %5, align 4
  %7 = sext i32 %6 to i64
  %8 = getelementptr inbounds i8, ptr %4, i64 %7
  %9 = getelementptr inbounds nuw i8, ptr %8, i64 4
  %.val6 = load i8, ptr %9, align 1
  %10 = getelementptr i8, ptr %8, i64 5
  %.val7 = load i8, ptr %10, align 1
  %11 = zext i8 %.val6 to i16
  %12 = shl nuw i16 %11, 8
  %13 = zext i8 %.val7 to i16
  %14 = or disjoint i16 %12, %13
  %15 = sext i16 %14 to i32
  %16 = getelementptr inbounds nuw i8, ptr %8, i64 6
  %.val = load i8, ptr %16, align 1
  %17 = getelementptr i8, ptr %8, i64 7
  %.val5 = load i8, ptr %17, align 1
  %18 = zext i8 %.val to i16
  %19 = shl nuw i16 %18, 8
  %20 = zext i8 %.val5 to i16
  %21 = or disjoint i16 %19, %20
  %22 = sext i16 %21 to i32
  %23 = sub nsw i32 %15, %22
  %24 = sitofp i32 %23 to float
  %25 = fdiv float %1, %24
  ret float %25
}